Certificate:
    Data:
        Version: 3 (0x2)
        Serial Number: 4096 (0x1000)
    Signature Algorithm: sha256WithRSAEncryption
        Issuer: C=KR, ST=Seoul, L=Seoul, O=Root Certificate Authority 1, OU=CA, CN=Root Certificate Authority 1 Ltd./emailAddress=root1@mmlab.snu.ac.kr
        Validity
            Not Before: Nov 14 19:21:21 2019 GMT
            Not After : Nov 13 19:21:21 2021 GMT
        Subject: CN=Intermeidate Certificate Authority 2 Ltd., ST=Seoul, C=KR/emailAddress=inter2@mmlab.snu.ac.kr, O=Intermediate Certificate Authority 2 Ltd., OU=CA
        Subject Public Key Info:
            Public Key Algorithm: rsaEncryption
                Public-Key: (4096 bit)
                Modulus:
                    00:a5:b2:75:89:03:6e:2d:bb:63:e6:4f:17:ed:99:
                    bd:bb:44:9a:ae:55:5c:b8:78:dd:95:1a:64:f6:a1:
                    55:ff:98:3f:d6:96:5d:63:fa:b1:a9:10:3d:01:76:
                    d8:b3:ff:9b:6e:78:3a:15:0f:60:16:67:05:58:45:
                    b6:e3:8d:c9:77:fc:76:27:64:27:05:52:34:ba:3b:
                    b1:ba:c3:a6:9b:d9:33:2b:e1:21:10:94:39:1c:12:
                    0c:d3:55:b3:15:12:32:33:29:05:f2:89:0c:af:cf:
                    af:aa:89:b7:8e:29:46:08:82:53:b6:05:da:fb:cc:
                    1d:d8:42:98:ce:cd:0f:5c:01:e3:57:ac:e5:fd:c4:
                    16:d8:a0:95:91:7b:1c:68:b7:2d:81:33:85:02:77:
                    3e:b7:26:78:ad:54:35:79:b6:f0:29:0c:ac:38:00:
                    2c:d2:3f:9e:75:8e:66:9d:94:ee:4c:b2:d3:2e:78:
                    65:ed:75:e6:5a:eb:c5:a6:05:a3:91:3a:ec:28:fc:
                    ba:b1:ad:31:c3:f5:79:61:d7:39:05:13:09:4d:e3:
                    e2:69:99:c7:2d:b0:4a:2e:6b:12:33:67:64:2e:a6:
                    2c:d3:6b:d1:6d:cb:ea:27:62:b8:cf:b2:fa:66:f2:
                    d4:d2:4d:a1:b5:40:63:14:16:98:5e:87:d9:da:e4:
                    fc:cd:1d:e8:71:51:a9:92:f7:18:8c:f9:54:cf:a3:
                    24:cd:73:e9:ff:9e:60:b3:cb:56:83:ad:74:13:e3:
                    07:38:b1:cf:4f:aa:63:f3:d3:3b:33:a5:bf:15:3c:
                    52:86:6b:24:82:25:71:bf:d6:91:3b:8a:04:ff:e7:
                    43:ac:05:09:78:4e:3b:58:59:f4:fc:d3:5c:8b:80:
                    44:37:8d:5e:53:8a:10:94:9c:12:59:71:b5:77:c7:
                    43:99:49:11:fc:83:78:d7:3c:f9:0c:2d:16:f4:18:
                    dc:84:e1:ff:d1:29:f6:06:65:1c:5e:96:a7:88:cd:
                    4b:4d:ca:80:e6:23:f4:17:ac:a5:8d:56:49:9f:49:
                    9a:90:5e:cc:1e:6b:90:5a:20:cc:19:9c:7a:f6:f6:
                    1f:e4:af:a9:d8:f5:e6:18:32:de:f5:b8:bb:9b:d0:
                    27:71:69:c2:a8:a6:17:19:6e:f4:bd:1b:21:a5:e3:
                    f6:45:22:1d:43:ce:aa:6b:4f:20:83:fe:d8:3a:5b:
                    56:52:2d:cf:38:61:1c:5e:c8:b7:d3:40:8b:52:07:
                    a7:82:2c:0b:09:18:df:c2:af:50:74:0f:13:74:db:
                    2b:f0:cc:dc:ea:20:16:5c:0c:7d:b6:f9:26:bb:bd:
                    21:be:5f:c0:9c:c9:e1:7c:85:39:4e:c3:26:fe:3d:
                    ce:d0:49
                Exponent: 65537 (0x10001)
        X509v3 extensions:
            X509v3 Basic Constraints: critical
                CA:TRUE
            X509v3 Subject Key Identifier: 
                72:17:B3:E0:BA:57:B8:15:C6:2E:0C:E3:CA:51:C9:FD:FB:5B:F9:87
            X509v3 Authority Key Identifier: 
                keyid:5D:DD:20:26:BC:CB:50:BF:D9:DC:80:9D:03:E6:21:29:02:8B:EE:A2

            X509v3 Key Usage: 
                Digital Signature, Key Encipherment, Certificate Sign, CRL Sign
            X509v3 Extended Key Usage: 
                TLS Web Server Authentication
            X509v3 CRL Distribution Points: 

                Full Name:
                  URI:http://pki.root1.com/root1.crl

                Full Name:
                  URI:http://pki.root1.com/root1bak.crl

            X509v3 Subject Alternative Name: 
                DNS:Intermediate CA 0, DNS:CA Intermediate 0
            Authority Information Access: 
                CA Issuers - URI:http://pki.root1.com/root1.crt
                CA Issuers - URI:http://pki.root1bak.com/root1.crt
                OCSP - URI:http://pki.root1.com/ocsp/
                OCSP - URI:http://pki.root1bak.com/ocsp/

    Signature Algorithm: sha256WithRSAEncryption
         77:16:a8:61:3b:2d:05:90:ca:08:e0:ee:4d:73:9b:78:ca:84:
         88:a3:ef:e0:12:ad:88:f5:8b:cf:18:46:5d:4d:4f:3d:fe:07:
         ed:fa:52:e9:32:08:29:b9:21:a8:74:d6:ab:7d:25:54:92:9c:
         cc:19:ad:8e:f3:e5:b5:15:fc:cd:f1:7d:74:08:19:95:7a:06:
         b9:64:29:ac:95:49:66:6f:76:02:05:93:94:f4:b0:7b:98:2c:
         ce:20:41:86:fc:69:04:d5:6a:68:33:50:2a:44:aa:d7:a9:3b:
         d0:82:c1:02:37:37:e7:e9:11:e6:36:34:6c:6d:e5:19:86:12:
         2a:35:ff:b5:82:c4:35:59:47:2f:88:f1:db:33:71:a5:06:d7:
         9f:12:91:7f:20:68:bc:0f:0d:b5:23:62:c1:a1:d1:8a:0a:9b:
         cd:26:3c:3a:39:2b:60:0b:34:e8:20:ab:80:df:88:fa:68:e7:
         22:13:1f:1d:0e:48:8b:f5:1d:af:5b:c4:01:39:50:ca:db:b9:
         56:6e:f6:08:85:2a:a4:cd:21:0c:c7:d8:b7:a6:68:6b:54:01:
         ac:cb:9b:c0:09:c3:9f:ec:ab:2f:44:ec:a1:28:b6:49:b3:0b:
         f9:06:e7:fb:12:84:17:91:8a:ce:73:0f:25:ff:bd:f1:65:58:
         ca:a5:28:98:38:a5:da:97:29:62:c9:a5:59:fe:f8:10:df:27:
         b8:48:96:02:f2:64:14:65:9d:9e:52:8a:09:b6:be:65:53:d5:
         16:2d:0f:2f:78:64:78:ca:86:9c:69:d9:ae:5a:19:9a:ca:bb:
         64:5c:57:0b:c6:7a:eb:57:41:61:0c:c7:23:ed:08:dd:eb:bc:
         c7:ee:83:d2:55:0e:9b:35:18:55:33:b6:18:98:00:f4:7f:ae:
         ea:96:de:c9:c1:76:93:07:68:be:de:e5:af:c0:d4:78:66:ac:
         51:dc:f4:c5:35:c9:44:e0:11:25:80:f9:78:a6:4b:ae:b9:9a:
         7a:fc:1d:e3:63:f7:ce:9e:36:08:75:0e:66:68:3d:fc:d6:10:
         6a:79:59:89:23:ee:86:14:92:53:25:45:ca:15:e9:cb:92:96:
         21:ee:24:65:7d:62:5f:3a:1c:77:30:79:b1:9e:b5:a8:26:6f:
         51:13:65:e1:b0:4e:52:9a:57:77:61:bd:35:67:1c:c4:88:52:
         b3:81:a0:62:e3:b3:7a:66:cc:4e:c5:36:89:bf:a2:a9:4a:06:
         ce:04:1d:2a:6a:d4:89:69:31:2c:8d:ad:17:f9:ab:ee:ba:bb:
         60:54:6c:ee:1e:c5:0a:e9:7f:6d:42:91:d4:a9:16:30:31:b1:
         45:e0:27:60:25:b9:c1:f2
-----BEGIN CERTIFICATE-----
MIIHrzCCBZegAwIBAgICEAAwDQYJKoZIhvcNAQELBQAwgbMxCzAJBgNVBAYTAktS
MQ4wDAYDVQQIDAVTZW91bDEOMAwGA1UEBwwFU2VvdWwxJTAjBgNVBAoMHFJvb3Qg
Q2VydGlmaWNhdGUgQXV0aG9yaXR5IDExCzAJBgNVBAsMAkNBMSowKAYDVQQDDCFS
b290IENlcnRpZmljYXRlIEF1dGhvcml0eSAxIEx0ZC4xJDAiBgkqhkiG9w0BCQEW
FXJvb3QxQG1tbGFiLnNudS5hYy5rcjAeFw0xOTExMTQxOTIxMjFaFw0yMTExMTMx
OTIxMjFaMIG5MTIwMAYDVQQDDClJbnRlcm1laWRhdGUgQ2VydGlmaWNhdGUgQXV0
aG9yaXR5IDIgTHRkLjEOMAwGA1UECAwFU2VvdWwxCzAJBgNVBAYTAktSMSUwIwYJ
KoZIhvcNAQkBFhZpbnRlcjJAbW1sYWIuc251LmFjLmtyMTIwMAYDVQQKDClJbnRl
cm1lZGlhdGUgQ2VydGlmaWNhdGUgQXV0aG9yaXR5IDIgTHRkLjELMAkGA1UECwwC
Q0EwggIiMA0GCSqGSIb3DQEBAQUAA4ICDwAwggIKAoICAQClsnWJA24tu2PmTxft
mb27RJquVVy4eN2VGmT2oVX/mD/Wll1j+rGpED0Bdtiz/5tueDoVD2AWZwVYRbbj
jcl3/HYnZCcFUjS6O7G6w6ab2TMr4SEQlDkcEgzTVbMVEjIzKQXyiQyvz6+qibeO
KUYIglO2Bdr7zB3YQpjOzQ9cAeNXrOX9xBbYoJWRexxoty2BM4UCdz63JnitVDV5
tvApDKw4ACzSP551jmadlO5MstMueGXtdeZa68WmBaOROuwo/LqxrTHD9Xlh1zkF
EwlN4+JpmcctsEouaxIzZ2QupizTa9Fty+onYrjPsvpm8tTSTaG1QGMUFpheh9na
5PzNHehxUamS9xiM+VTPoyTNc+n/nmCzy1aDrXQT4wc4sc9PqmPz0zszpb8VPFKG
aySCJXG/1pE7igT/50OsBQl4TjtYWfT801yLgEQ3jV5TihCUnBJZcbV3x0OZSRH8
g3jXPPkMLRb0GNyE4f/RKfYGZRxelqeIzUtNyoDmI/QXrKWNVkmfSZqQXswea5Ba
IMwZnHr29h/kr6nY9eYYMt71uLub0CdxacKophcZbvS9GyGl4/ZFIh1DzqprTyCD
/tg6W1ZSLc84YRxeyLfTQItSB6eCLAsJGN/Cr1B0DxN02yvwzNzqIBZcDH22+Sa7
vSG+X8CcyeF8hTlOwyb+Pc7QSQIDAQABo4IBwzCCAb8wDwYDVR0TAQH/BAUwAwEB
/zAdBgNVHQ4EFgQUchez4LpXuBXGLgzjylHJ/ftb+YcwHwYDVR0jBBgwFoAUXd0g
JrzLUL/Z3ICdA+YhKQKL7qIwCwYDVR0PBAQDAgGmMBMGA1UdJQQMMAoGCCsGAQUF
BwMBMFgGA1UdHwRRME8wJKAioCCGHmh0dHA6Ly9wa2kucm9vdDEuY29tL3Jvb3Qx
LmNybDAnoCWgI4YhaHR0cDovL3BraS5yb290MS5jb20vcm9vdDFiYWsuY3JsMC8G
A1UdEQQoMCaCEUludGVybWVkaWF0ZSBDQSAwghFDQSBJbnRlcm1lZGlhdGUgMDCB
vgYIKwYBBQUHAQEEgbEwga4wKgYIKwYBBQUHMAKGHmh0dHA6Ly9wa2kucm9vdDEu
Y29tL3Jvb3QxLmNydDAtBggrBgEFBQcwAoYhaHR0cDovL3BraS5yb290MWJhay5j
b20vcm9vdDEuY3J0MCYGCCsGAQUFBzABhhpodHRwOi8vcGtpLnJvb3QxLmNvbS9v
Y3NwLzApBggrBgEFBQcwAYYdaHR0cDovL3BraS5yb290MWJhay5jb20vb2NzcC8w
DQYJKoZIhvcNAQELBQADggIBAHcWqGE7LQWQygjg7k1zm3jKhIij7+ASrYj1i88Y
Rl1NTz3+B+36UukyCCm5Iah01qt9JVSSnMwZrY7z5bUV/M3xfXQIGZV6BrlkKayV
SWZvdgIFk5T0sHuYLM4gQYb8aQTVamgzUCpEqtepO9CCwQI3N+fpEeY2NGxt5RmG
Eio1/7WCxDVZRy+I8dszcaUG158SkX8gaLwPDbUjYsGh0YoKm80mPDo5K2ALNOgg
q4DfiPpo5yITHx0OSIv1Ha9bxAE5UMrbuVZu9giFKqTNIQzH2LemaGtUAazLm8AJ
w5/sqy9E7KEotkmzC/kG5/sShBeRis5zDyX/vfFlWMqlKJg4pdqXKWLJpVn++BDf
J7hIlgLyZBRlnZ5Sigm2vmVT1RYtDy94ZHjKhpxp2a5aGZrKu2RcVwvGeutXQWEM
xyPtCN3rvMfug9JVDps1GFUzthiYAPR/ruqW3snBdpMHaL7e5a/A1HhmrFHc9MU1
yUTgESWA+XimS665mnr8HeNj986eNgh1DmZoPfzWEGp5WYkj7oYUklMlRcoV6cuS
liHuJGV9Yl86HHcwebGetagmb1ETZeGwTlKaV3dhvTVnHMSIUrOBoGLjs3pmzE7F
Nom/oqlKBs4EHSpq1IlpMSyNrRf5q+66u2BUbO4exQrpf21CkdSpFjAxsUXgJ2Al
ucHy
-----END CERTIFICATE-----
